; Function Attrs: nounwind uwtable
define internal ptr @clear_extension(ptr readnone captures(none) %0, ptr noundef %1) #0 {
  %3 = alloca ptr, align 8
  %4 = alloca ptr, align 8
  call void @llvm.lifetime.start.p0(i64 8, ptr nonnull %3) #11
  store ptr null, ptr %3, align 8, !tbaa !9
  call void @llvm.lifetime.start.p0(i64 8, ptr nonnull %4) #11
  store ptr null, ptr %4, align 8, !tbaa !9
  %5 = call i32 (ptr, ptr, ...) @PyArg_ParseTuple(ptr noundef %1, ptr noundef nonnull @.str.203, ptr noundef nonnull %3, ptr noundef nonnull %4) #11
  %.not = icmp eq i32 %5, 0
  br i1 %.not, label %11, label %6

6:                                                ; preds = %2
  %7 = load ptr, ptr %3, align 8, !tbaa !9
  %8 = load ptr, ptr %4, align 8, !tbaa !9
  %9 = call i32 @_PyImport_ClearExtension(ptr noundef %7, ptr noundef %8) #11
  %10 = icmp slt i32 %9, 0
  %._Py_NoneStruct = select i1 %10, ptr null, ptr @_Py_NoneStruct
  br label %11

11:                                               ; preds = %6, %2
  %.0 = phi ptr [ null, %2 ], [ %._Py_NoneStruct, %6 ]
  call void @llvm.lifetime.end.p0(i64 8, ptr nonnull %4) #11
  call void @llvm.lifetime.end.p0(i64 8, ptr nonnull %3) #11
  ret ptr %.0
}